; Function Attrs: mustprogress uwtable
define hidden void @_ZN4cvc58internal3smt14ContextManagerC2ERNS0_3EnvERNS1_17SolverEngineStateE(ptr noundef nonnull align 8 dereferenceable(61) %this, ptr noundef nonnull align 8 dereferenceable(576) %env, ptr noundef nonnull align 8 dereferenceable(108) %state) unnamed_addr #3 align 2 {
entry:
  tail call void @_ZN4cvc58internal6EnvObjC2ERNS0_3EnvE(ptr noundef nonnull align 8 dereferenceable(16) %this, ptr noundef nonnull align 8 dereferenceable(576) %env)
  store ptr getelementptr inbounds ({ [4 x ptr] }, ptr @_ZTVN4cvc58internal3smt14ContextManagerE, i64 0, i32 0, i64 2), ptr %this, align 8
  %d_state = getelementptr inbounds i8, ptr %this, i64 16
  store ptr %state, ptr %d_state, align 8
  %d_smt = getelementptr inbounds i8, ptr %this, i64 24
  tail call void @llvm.memset.p0.i64(ptr noundef nonnull align 8 dereferenceable(37) %d_smt, i8 0, i64 37, i1 false)
  ret void
}